target datalayout = "e-m:e-p270:32:32-p271:32:32-p272:64:64-i64:64-i128:128-f80:128-n8:16:32:64-S128"
target triple = "x86_64-pc-linux-gnu"

%struct.tm = type { i32, i32, i32, i32, i32, i32, i32, i32, i32, i64, ptr }
%struct.RarLocalTime = type { i32, i32, i32, i32, i32, i32, i32, i32, i32 }
%class.RarTime = type { i64 }

; Function Attrs: mustprogress nounwind uwtable
define void @_ZN7RarTime9SetUnixNSEm(ptr noundef nonnull align 8 dereferenceable(8) %0, i64 noundef %1) #3 align 2 {
  %3 = alloca ptr, align 8
  %4 = alloca i64, align 8
  %5 = alloca i64, align 8
  store ptr %0, ptr %3, align 8, !tbaa !3
  store i64 %1, ptr %4, align 8, !tbaa !10
  %6 = load ptr, ptr %3, align 8
  call void @llvm.lifetime.start.p0(i64 8, ptr %5) #6
  store i64 -6802270473709551616, ptr %5, align 8, !tbaa !10
  %7 = load i64, ptr %4, align 8, !tbaa !10
  %8 = load i64, ptr %5, align 8, !tbaa !10
  %9 = add i64 %7, %8
  %10 = udiv i64 %9, 1
  %11 = getelementptr inbounds nuw %class.RarTime, ptr %6, i32 0, i32 0
  store i64 %10, ptr %11, align 8, !tbaa !34
  call void @llvm.lifetime.end.p0(i64 8, ptr %5) #6
  ret void
}

; Function Attrs: mustprogress uwtable
define void @_ZN7RarTime7SetUnixEl(ptr noundef nonnull align 8 dereferenceable(8) %0, i64 noundef %1) #0 align 2 {
  %3 = alloca ptr, align 8
  %4 = alloca i64, align 8
  store ptr %0, ptr %3, align 8, !tbaa !3
  store i64 %1, ptr %4, align 8, !tbaa !10
  %5 = load ptr, ptr %3, align 8
  %6 = load i64, ptr %4, align 8, !tbaa !10
  %7 = mul i64 %6, 1000000000
  call void @_ZN7RarTime9SetUnixNSEm(ptr noundef nonnull align 8 dereferenceable(8) %5, i64 noundef %7)
  ret void
}

; Function Attrs: mustprogress uwtable
define void @_ZN7RarTime8SetLocalEP12RarLocalTime(ptr noundef nonnull align 8 dereferenceable(8) %0, ptr noundef %1) #0 align 2 {
  %3 = alloca ptr, align 8
  %4 = alloca ptr, align 8
  %5 = alloca %struct.tm, align 8
  store ptr %0, ptr %3, align 8, !tbaa !3
  store ptr %1, ptr %4, align 8, !tbaa !8
  %6 = load ptr, ptr %3, align 8
  call void @llvm.lifetime.start.p0(i64 56, ptr %5) #6
  %7 = load ptr, ptr %4, align 8, !tbaa !8
  %8 = getelementptr inbounds nuw %struct.RarLocalTime, ptr %7, i32 0, i32 5
  %9 = load i32, ptr %8, align 4, !tbaa !29
  %10 = getelementptr inbounds nuw %struct.tm, ptr %5, i32 0, i32 0
  store i32 %9, ptr %10, align 8, !tbaa !28
  %11 = load ptr, ptr %4, align 8, !tbaa !8
  %12 = getelementptr inbounds nuw %struct.RarLocalTime, ptr %11, i32 0, i32 4
  %13 = load i32, ptr %12, align 4, !tbaa !27
  %14 = getelementptr inbounds nuw %struct.tm, ptr %5, i32 0, i32 1
  store i32 %13, ptr %14, align 4, !tbaa !26
  %15 = load ptr, ptr %4, align 8, !tbaa !8
  %16 = getelementptr inbounds nuw %struct.RarLocalTime, ptr %15, i32 0, i32 3
  %17 = load i32, ptr %16, align 4, !tbaa !25
  %18 = getelementptr inbounds nuw %struct.tm, ptr %5, i32 0, i32 2
  store i32 %17, ptr %18, align 8, !tbaa !24
  %19 = load ptr, ptr %4, align 8, !tbaa !8
  %20 = getelementptr inbounds nuw %struct.RarLocalTime, ptr %19, i32 0, i32 2
  %21 = load i32, ptr %20, align 4, !tbaa !23
  %22 = getelementptr inbounds nuw %struct.tm, ptr %5, i32 0, i32 3
  store i32 %21, ptr %22, align 4, !tbaa !22
  %23 = load ptr, ptr %4, align 8, !tbaa !8
  %24 = getelementptr inbounds nuw %struct.RarLocalTime, ptr %23, i32 0, i32 1
  %25 = load i32, ptr %24, align 4, !tbaa !21
  %26 = sub i32 %25, 1
  %27 = getelementptr inbounds nuw %struct.tm, ptr %5, i32 0, i32 4
  store i32 %26, ptr %27, align 8, !tbaa !20
  %28 = load ptr, ptr %4, align 8, !tbaa !8
  %29 = getelementptr inbounds nuw %struct.RarLocalTime, ptr %28, i32 0, i32 0
  %30 = load i32, ptr %29, align 4, !tbaa !18
  %31 = sub i32 %30, 1900
  %32 = getelementptr inbounds nuw %struct.tm, ptr %5, i32 0, i32 5
  store i32 %31, ptr %32, align 4, !tbaa !14
  %33 = getelementptr inbounds nuw %struct.tm, ptr %5, i32 0, i32 8
  store i32 -1, ptr %33, align 8, !tbaa !37
  %34 = call i64 @mktime(ptr noundef %5) #6
  call void @_ZN7RarTime7SetUnixEl(ptr noundef nonnull align 8 dereferenceable(8) %6, i64 noundef %34)
  %35 = load ptr, ptr %4, align 8, !tbaa !8
  %36 = getelementptr inbounds nuw %struct.RarLocalTime, ptr %35, i32 0, i32 6
  %37 = load i32, ptr %36, align 4, !tbaa !36
  %38 = zext i32 %37 to i64
  %39 = getelementptr inbounds nuw %class.RarTime, ptr %6, i32 0, i32 0
  %40 = load i64, ptr %39, align 8, !tbaa !34
  %41 = add i64 %40, %38
  store i64 %41, ptr %39, align 8, !tbaa !34
  call void @llvm.lifetime.end.p0(i64 56, ptr %5) #6
  ret void
}

; Function Attrs: mustprogress uwtable
define void @_ZN7RarTime10SetIsoTextEPKw(ptr noundef nonnull align 8 dereferenceable(8) %0, ptr noundef %1) #0 align 2 {
  %3 = alloca ptr, align 8
  %4 = alloca ptr, align 8
  %5 = alloca [6 x i32], align 16
  %6 = alloca i32, align 4
  %7 = alloca i32, align 4
  %8 = alloca %struct.RarLocalTime, align 4
  store ptr %0, ptr %3, align 8, !tbaa !3
  store ptr %1, ptr %4, align 8, !tbaa !39
  %9 = load ptr, ptr %3, align 8
  call void @llvm.lifetime.start.p0(i64 24, ptr %5) #6
  %10 = getelementptr inbounds [6 x i32], ptr %5, i64 0, i64 0
  call void @llvm.memset.p0.i64(ptr align 16 %10, i8 0, i64 24, i1 false)
  call void @llvm.lifetime.start.p0(i64 4, ptr %6) #6
  store i32 0, ptr %6, align 4, !tbaa !38
  br label %11

11:                                               ; preds = %51, %2
  %12 = load ptr, ptr %4, align 8, !tbaa !39
  %13 = load i32, ptr %12, align 4, !tbaa !45
  %14 = icmp ne i32 %13, 0
  br i1 %14, label %16, label %15

15:                                               ; preds = %11
  call void @llvm.lifetime.end.p0(i64 4, ptr %6) #6
  br label %54

16:                                               ; preds = %11
  %17 = load ptr, ptr %4, align 8, !tbaa !39
  %18 = load i32, ptr %17, align 4, !tbaa !45
  %19 = call noundef zeroext i1 @_Z7IsDigiti(i32 noundef %18)
  br i1 %19, label %20, label %50

20:                                               ; preds = %16
  call void @llvm.lifetime.start.p0(i64 4, ptr %7) #6
  %21 = load i32, ptr %6, align 4, !tbaa !38
  %22 = icmp ult i32 %21, 4
  br i1 %22, label %23, label %24

23:                                               ; preds = %20
  br label %29

24:                                               ; preds = %20
  %25 = load i32, ptr %6, align 4, !tbaa !38
  %26 = sub i32 %25, 4
  %27 = udiv i32 %26, 2
  %28 = add i32 %27, 1
  br label %29

29:                                               ; preds = %24, %23
  %30 = phi i32 [ 0, %23 ], [ %28, %24 ]
  store i32 %30, ptr %7, align 4, !tbaa !38
  %31 = load i32, ptr %7, align 4, !tbaa !38
  %32 = sext i32 %31 to i64
  %33 = icmp ult i64 %32, 6
  br i1 %33, label %34, label %47

34:                                               ; preds = %29
  %35 = load i32, ptr %7, align 4, !tbaa !38
  %36 = sext i32 %35 to i64
  %37 = getelementptr inbounds [6 x i32], ptr %5, i64 0, i64 %36
  %38 = load i32, ptr %37, align 4, !tbaa !38
  %39 = mul nsw i32 %38, 10
  %40 = load ptr, ptr %4, align 8, !tbaa !39
  %41 = load i32, ptr %40, align 4, !tbaa !45
  %42 = add nsw i32 %39, %41
  %43 = sub nsw i32 %42, 48
  %44 = load i32, ptr %7, align 4, !tbaa !38
  %45 = sext i32 %44 to i64
  %46 = getelementptr inbounds [6 x i32], ptr %5, i64 0, i64 %45
  store i32 %43, ptr %46, align 4, !tbaa !38
  br label %47

47:                                               ; preds = %34, %29
  %48 = load i32, ptr %6, align 4, !tbaa !38
  %49 = add i32 %48, 1
  store i32 %49, ptr %6, align 4, !tbaa !38
  call void @llvm.lifetime.end.p0(i64 4, ptr %7) #6
  br label %50

50:                                               ; preds = %47, %16
  br label %51

51:                                               ; preds = %50
  %52 = load ptr, ptr %4, align 8, !tbaa !39
  %53 = getelementptr inbounds nuw i32, ptr %52, i32 1
  store ptr %53, ptr %4, align 8, !tbaa !39
  br label %11, !llvm.loop !47

54:                                               ; preds = %15
  call void @llvm.lifetime.start.p0(i64 36, ptr %8) #6
  %55 = getelementptr inbounds [6 x i32], ptr %5, i64 0, i64 5
  %56 = load i32, ptr %55, align 4, !tbaa !38
  %57 = getelementptr inbounds nuw %struct.RarLocalTime, ptr %8, i32 0, i32 5
  store i32 %56, ptr %57, align 4, !tbaa !29
  %58 = getelementptr inbounds [6 x i32], ptr %5, i64 0, i64 4
  %59 = load i32, ptr %58, align 16, !tbaa !38
  %60 = getelementptr inbounds nuw %struct.RarLocalTime, ptr %8, i32 0, i32 4
  store i32 %59, ptr %60, align 4, !tbaa !27
  %61 = getelementptr inbounds [6 x i32], ptr %5, i64 0, i64 3
  %62 = load i32, ptr %61, align 4, !tbaa !38
  %63 = getelementptr inbounds nuw %struct.RarLocalTime, ptr %8, i32 0, i32 3
  store i32 %62, ptr %63, align 4, !tbaa !25
  %64 = getelementptr inbounds [6 x i32], ptr %5, i64 0, i64 2
  %65 = load i32, ptr %64, align 8, !tbaa !38
  %66 = icmp eq i32 %65, 0
  br i1 %66, label %67, label %68

67:                                               ; preds = %54
  br label %71

68:                                               ; preds = %54
  %69 = getelementptr inbounds [6 x i32], ptr %5, i64 0, i64 2
  %70 = load i32, ptr %69, align 8, !tbaa !38
  br label %71

71:                                               ; preds = %68, %67
  %72 = phi i32 [ 1, %67 ], [ %70, %68 ]
  %73 = getelementptr inbounds nuw %struct.RarLocalTime, ptr %8, i32 0, i32 2
  store i32 %72, ptr %73, align 4, !tbaa !23
  %74 = getelementptr inbounds [6 x i32], ptr %5, i64 0, i64 1
  %75 = load i32, ptr %74, align 4, !tbaa !38
  %76 = icmp eq i32 %75, 0
  br i1 %76, label %77, label %78

77:                                               ; preds = %71
  br label %81

78:                                               ; preds = %71
  %79 = getelementptr inbounds [6 x i32], ptr %5, i64 0, i64 1
  %80 = load i32, ptr %79, align 4, !tbaa !38
  br label %81

81:                                               ; preds = %78, %77
  %82 = phi i32 [ 1, %77 ], [ %80, %78 ]
  %83 = getelementptr inbounds nuw %struct.RarLocalTime, ptr %8, i32 0, i32 1
  store i32 %82, ptr %83, align 4, !tbaa !21
  %84 = getelementptr inbounds [6 x i32], ptr %5, i64 0, i64 0
  %85 = load i32, ptr %84, align 16, !tbaa !38
  %86 = getelementptr inbounds nuw %struct.RarLocalTime, ptr %8, i32 0, i32 0
  store i32 %85, ptr %86, align 4, !tbaa !18
  %87 = getelementptr inbounds nuw %struct.RarLocalTime, ptr %8, i32 0, i32 6
  store i32 0, ptr %87, align 4, !tbaa !36
  call void @_ZN7RarTime8SetLocalEP12RarLocalTime(ptr noundef nonnull align 8 dereferenceable(8) %9, ptr noundef %8)
  call void @llvm.lifetime.end.p0(i64 36, ptr %8) #6
  call void @llvm.lifetime.end.p0(i64 24, ptr %5) #6
  ret void
}