; Function Attrs: mustprogress uwtable
define void @_ZN7RarTime10SetIsoTextEPKw(ptr noundef nonnull writeonly align 8 captures(none) dereferenceable(8) %0, ptr noundef readonly captures(none) %1) local_unnamed_addr #7 align 2 {
  %3 = alloca %struct.tm, align 8
  %4 = alloca [6 x i32], align 16
  call void @llvm.lifetime.start.p0(i64 24, ptr nonnull %4) #13
  call void @llvm.memset.p0.i64(ptr noundef nonnull align 16 dereferenceable(24) %4, i8 0, i64 24, i1 false)
  %5 = load i32, ptr %1, align 4, !tbaa !32
  %.not13 = icmp eq i32 %5, 0
  br i1 %.not13, label %._crit_edge, label %.lr.ph

._crit_edge.loopexit:                             ; preds = %43
  %.phi.trans.insert = getelementptr inbounds nuw i8, ptr %4, i64 20
  %.pre = load i32, ptr %.phi.trans.insert, align 4, !tbaa !34
  %.phi.trans.insert16 = getelementptr inbounds nuw i8, ptr %4, i64 16
  %.pre17 = load i32, ptr %.phi.trans.insert16, align 16, !tbaa !34
  %.phi.trans.insert18 = getelementptr inbounds nuw i8, ptr %4, i64 12
  %.pre19 = load i32, ptr %.phi.trans.insert18, align 4, !tbaa !34
  %.phi.trans.insert20 = getelementptr inbounds nuw i8, ptr %4, i64 8
  %.pre21 = load i32, ptr %.phi.trans.insert20, align 8, !tbaa !34
  %.phi.trans.insert22 = getelementptr inbounds nuw i8, ptr %4, i64 4
  %.pre23 = load i32, ptr %.phi.trans.insert22, align 4, !tbaa !34
  %.pre24 = load i32, ptr %4, align 16, !tbaa !34
  %6 = add i32 %.pre24, -1900
  br label %._crit_edge

._crit_edge:                                      ; preds = %._crit_edge.loopexit, %2
  %7 = phi i32 [ %6, %._crit_edge.loopexit ], [ -1900, %2 ]
  %8 = phi i32 [ %.pre23, %._crit_edge.loopexit ], [ 0, %2 ]
  %9 = phi i32 [ %.pre21, %._crit_edge.loopexit ], [ 0, %2 ]
  %10 = phi i32 [ %.pre19, %._crit_edge.loopexit ], [ 0, %2 ]
  %11 = phi i32 [ %.pre17, %._crit_edge.loopexit ], [ 0, %2 ]
  %12 = phi i32 [ %.pre, %._crit_edge.loopexit ], [ 0, %2 ]
  %13 = tail call i32 @llvm.umax.i32(i32 %9, i32 1)
  call void @llvm.lifetime.start.p0(i64 56, ptr nonnull %3) #13
  store i32 %12, ptr %3, align 8, !tbaa !24
  %14 = getelementptr inbounds nuw i8, ptr %3, i64 4
  store i32 %11, ptr %14, align 4, !tbaa !22
  %15 = getelementptr inbounds nuw i8, ptr %3, i64 8
  store i32 %10, ptr %15, align 8, !tbaa !20
  %16 = getelementptr inbounds nuw i8, ptr %3, i64 12
  store i32 %13, ptr %16, align 4, !tbaa !18
  %17 = tail call i32 @llvm.usub.sat.i32(i32 %8, i32 1)
  %18 = getelementptr inbounds nuw i8, ptr %3, i64 16
  store i32 %17, ptr %18, align 8, !tbaa !16
  %19 = getelementptr inbounds nuw i8, ptr %3, i64 20
  store i32 %7, ptr %19, align 4, !tbaa !9
  %20 = getelementptr inbounds nuw i8, ptr %3, i64 32
  store i32 -1, ptr %20, align 8, !tbaa !31
  %21 = call i64 @mktime(ptr noundef nonnull %3) #13
  %22 = mul i64 %21, 1000000000
  %23 = add i64 %22, -6802270473709551616
  store i64 %23, ptr %0, align 8, !tbaa !3
  call void @llvm.lifetime.end.p0(i64 56, ptr nonnull %3) #13
  call void @llvm.lifetime.end.p0(i64 24, ptr nonnull %4) #13
  ret void

.lr.ph:                                           ; preds = %2, %43
  %24 = phi i32 [ %45, %43 ], [ %5, %2 ]
  %.015 = phi ptr [ %44, %43 ], [ %1, %2 ]
  %.01014 = phi i32 [ %.1, %43 ], [ 0, %2 ]
  %25 = tail call noundef zeroext i1 @_Z7IsDigiti(i32 noundef %24)
  br i1 %25, label %26, label %43

26:                                               ; preds = %.lr.ph
  %27 = icmp ult i32 %.01014, 4
  %28 = add i32 %.01014, -4
  %29 = lshr i32 %28, 1
  %30 = add nuw i32 %29, 1
  %31 = select i1 %27, i32 0, i32 %30
  %32 = icmp ult i32 %31, 6
  br i1 %32, label %33, label %41

33:                                               ; preds = %26
  %34 = zext nneg i32 %31 to i64
  %35 = getelementptr inbounds nuw [6 x i32], ptr %4, i64 0, i64 %34
  %36 = load i32, ptr %35, align 4, !tbaa !34
  %37 = mul nsw i32 %36, 10
  %38 = load i32, ptr %.015, align 4, !tbaa !32
  %39 = add i32 %38, -48
  %40 = add i32 %39, %37
  store i32 %40, ptr %35, align 4, !tbaa !34
  br label %41

41:                                               ; preds = %33, %26
  %42 = add i32 %.01014, 1
  br label %43

43:                                               ; preds = %.lr.ph, %41
  %.1 = phi i32 [ %42, %41 ], [ %.01014, %.lr.ph ]
  %44 = getelementptr inbounds nuw i8, ptr %.015, i64 4
  %45 = load i32, ptr %44, align 4, !tbaa !32
  %.not = icmp eq i32 %45, 0
  br i1 %.not, label %._crit_edge.loopexit, label %.lr.ph, !llvm.loop !35
}